#include <math.h>
#include <stdio.h>
#include <stdlib.h>
#include <string.h>

int main()
{
    int n,i,j,p=0;
    int a[100000];
    scanf("%d\n",&n);
    for(i=0;i<n;i++){
                     scanf("%d",&a[i]);
                     if(i==0){printf("%d",a[0]);}
                     else{
                     for(j=0;j<i;j++){
                                      if(a[i]==a[j]){p+=1;}
                                      }
                     if(p==0){printf(" %d",a[i]);}
                     p=0;
                     }
                     }
    return 0;
}        
      