; ModuleID = 'source-C-CXX/12/1931.c'
source_filename = "source-C-CXX/12/1931.c"
target datalayout = "e-m:e-p270:32:32-p271:32:32-p272:64:64-i64:64-f80:128-n8:16:32:64-S128"
target triple = "x86_64-pc-linux-gnu"

@.str = private unnamed_addr constant [4 x i8] c"%d\0A\00", align 1
@.str.1 = private unnamed_addr constant [3 x i8] c"%d\00", align 1
@.str.2 = private unnamed_addr constant [4 x i8] c" %d\00", align 1

; Function Attrs: nofree nounwind sspstrong uwtable
define dso_local i32 @main() local_unnamed_addr #0 {
  %1 = alloca i32, align 4
  %2 = alloca [100000 x i32], align 16
  %3 = bitcast i32* %1 to i8*
  call void @llvm.lifetime.start.p0i8(i64 4, i8* nonnull %3) #4
  %4 = bitcast [100000 x i32]* %2 to i8*
  call void @llvm.lifetime.start.p0i8(i64 400000, i8* nonnull %4) #4
  %5 = call i32 (i8*, ...) @__isoc99_scanf(i8* getelementptr inbounds ([4 x i8], [4 x i8]* @.str, i64 0, i64 0), i32* nonnull %1)
  %6 = getelementptr inbounds [100000 x i32], [100000 x i32]* %2, i64 0, i64 0
  %7 = load i32, i32* %1, align 4, !tbaa !5
  %8 = icmp sgt i32 %7, 0
  br i1 %8, label %9, label %116

9:                                                ; preds = %0, %111
  %10 = phi i64 [ %112, %111 ], [ 0, %0 ]
  %11 = and i64 %10, 9223372036854775800
  %12 = add nsw i64 %11, -8
  %13 = lshr exact i64 %12, 3
  %14 = add nuw nsw i64 %13, 1
  %15 = getelementptr inbounds [100000 x i32], [100000 x i32]* %2, i64 0, i64 %10
  %16 = call i32 (i8*, ...) @__isoc99_scanf(i8* getelementptr inbounds ([3 x i8], [3 x i8]* @.str.1, i64 0, i64 0), i32* nonnull %15)
  %17 = icmp eq i64 %10, 0
  br i1 %17, label %93, label %18

18:                                               ; preds = %9
  %19 = load i32, i32* %15, align 4, !tbaa !5
  %20 = icmp ult i64 %10, 8
  br i1 %20, label %90, label %21

21:                                               ; preds = %18
  %22 = and i64 %10, 9223372036854775800
  %23 = insertelement <4 x i32> poison, i32 %19, i32 0
  %24 = shufflevector <4 x i32> %23, <4 x i32> poison, <4 x i32> zeroinitializer
  %25 = insertelement <4 x i32> poison, i32 %19, i32 0
  %26 = shufflevector <4 x i32> %25, <4 x i32> poison, <4 x i32> zeroinitializer
  %27 = and i64 %14, 1
  %28 = icmp eq i64 %12, 0
  br i1 %28, label %64, label %29

29:                                               ; preds = %21
  %30 = and i64 %14, 4611686018427387902
  br label %31

31:                                               ; preds = %31, %29
  %32 = phi i64 [ 0, %29 ], [ %61, %31 ]
  %33 = phi <4 x i32> [ zeroinitializer, %29 ], [ %59, %31 ]
  %34 = phi <4 x i32> [ zeroinitializer, %29 ], [ %60, %31 ]
  %35 = phi i64 [ %30, %29 ], [ %62, %31 ]
  %36 = getelementptr inbounds [100000 x i32], [100000 x i32]* %2, i64 0, i64 %32
  %37 = bitcast i32* %36 to <4 x i32>*
  %38 = load <4 x i32>, <4 x i32>* %37, align 16, !tbaa !5
  %39 = getelementptr inbounds i32, i32* %36, i64 4
  %40 = bitcast i32* %39 to <4 x i32>*
  %41 = load <4 x i32>, <4 x i32>* %40, align 16, !tbaa !5
  %42 = icmp eq <4 x i32> %24, %38
  %43 = icmp eq <4 x i32> %26, %41
  %44 = zext <4 x i1> %42 to <4 x i32>
  %45 = zext <4 x i1> %43 to <4 x i32>
  %46 = add <4 x i32> %33, %44
  %47 = add <4 x i32> %34, %45
  %48 = or i64 %32, 8
  %49 = getelementptr inbounds [100000 x i32], [100000 x i32]* %2, i64 0, i64 %48
  %50 = bitcast i32* %49 to <4 x i32>*
  %51 = load <4 x i32>, <4 x i32>* %50, align 16, !tbaa !5
  %52 = getelementptr inbounds i32, i32* %49, i64 4
  %53 = bitcast i32* %52 to <4 x i32>*
  %54 = load <4 x i32>, <4 x i32>* %53, align 16, !tbaa !5
  %55 = icmp eq <4 x i32> %24, %51
  %56 = icmp eq <4 x i32> %26, %54
  %57 = zext <4 x i1> %55 to <4 x i32>
  %58 = zext <4 x i1> %56 to <4 x i32>
  %59 = add <4 x i32> %46, %57
  %60 = add <4 x i32> %47, %58
  %61 = add nuw i64 %32, 16
  %62 = add i64 %35, -2
  %63 = icmp eq i64 %62, 0
  br i1 %63, label %64, label %31, !llvm.loop !9

64:                                               ; preds = %31, %21
  %65 = phi <4 x i32> [ undef, %21 ], [ %59, %31 ]
  %66 = phi <4 x i32> [ undef, %21 ], [ %60, %31 ]
  %67 = phi i64 [ 0, %21 ], [ %61, %31 ]
  %68 = phi <4 x i32> [ zeroinitializer, %21 ], [ %59, %31 ]
  %69 = phi <4 x i32> [ zeroinitializer, %21 ], [ %60, %31 ]
  %70 = icmp eq i64 %27, 0
  br i1 %70, label %84, label %71

71:                                               ; preds = %64
  %72 = getelementptr inbounds [100000 x i32], [100000 x i32]* %2, i64 0, i64 %67
  %73 = getelementptr inbounds i32, i32* %72, i64 4
  %74 = bitcast i32* %73 to <4 x i32>*
  %75 = load <4 x i32>, <4 x i32>* %74, align 16, !tbaa !5
  %76 = icmp eq <4 x i32> %26, %75
  %77 = zext <4 x i1> %76 to <4 x i32>
  %78 = add <4 x i32> %69, %77
  %79 = bitcast i32* %72 to <4 x i32>*
  %80 = load <4 x i32>, <4 x i32>* %79, align 16, !tbaa !5
  %81 = icmp eq <4 x i32> %24, %80
  %82 = zext <4 x i1> %81 to <4 x i32>
  %83 = add <4 x i32> %68, %82
  br label %84

84:                                               ; preds = %64, %71
  %85 = phi <4 x i32> [ %65, %64 ], [ %83, %71 ]
  %86 = phi <4 x i32> [ %66, %64 ], [ %78, %71 ]
  %87 = add <4 x i32> %86, %85
  %88 = call i32 @llvm.vector.reduce.add.v4i32(<4 x i32> %87)
  %89 = icmp eq i64 %10, %22
  br i1 %89, label %106, label %90

90:                                               ; preds = %18, %84
  %91 = phi i64 [ 0, %18 ], [ %22, %84 ]
  %92 = phi i32 [ 0, %18 ], [ %88, %84 ]
  br label %96

93:                                               ; preds = %9
  %94 = load i32, i32* %6, align 16, !tbaa !5
  %95 = call i32 (i8*, ...) @printf(i8* nonnull dereferenceable(1) getelementptr inbounds ([3 x i8], [3 x i8]* @.str.1, i64 0, i64 0), i32 %94)
  br label %111

96:                                               ; preds = %90, %96
  %97 = phi i64 [ %104, %96 ], [ %91, %90 ]
  %98 = phi i32 [ %103, %96 ], [ %92, %90 ]
  %99 = getelementptr inbounds [100000 x i32], [100000 x i32]* %2, i64 0, i64 %97
  %100 = load i32, i32* %99, align 4, !tbaa !5
  %101 = icmp eq i32 %19, %100
  %102 = zext i1 %101 to i32
  %103 = add nuw nsw i32 %98, %102
  %104 = add nuw nsw i64 %97, 1
  %105 = icmp eq i64 %104, %10
  br i1 %105, label %106, label %96, !llvm.loop !12

106:                                              ; preds = %96, %84
  %107 = phi i32 [ %88, %84 ], [ %103, %96 ]
  %108 = icmp eq i32 %107, 0
  br i1 %108, label %109, label %111

109:                                              ; preds = %106
  %110 = call i32 (i8*, ...) @printf(i8* nonnull dereferenceable(1) getelementptr inbounds ([4 x i8], [4 x i8]* @.str.2, i64 0, i64 0), i32 %19)
  br label %111

111:                                              ; preds = %106, %109, %93
  %112 = add nuw nsw i64 %10, 1
  %113 = load i32, i32* %1, align 4, !tbaa !5
  %114 = sext i32 %113 to i64
  %115 = icmp slt i64 %112, %114
  br i1 %115, label %9, label %116, !llvm.loop !14

116:                                              ; preds = %111, %0
  call void @llvm.lifetime.end.p0i8(i64 400000, i8* nonnull %4) #4
  call void @llvm.lifetime.end.p0i8(i64 4, i8* nonnull %3) #4
  ret i32 0
}

; Function Attrs: argmemonly mustprogress nofree nosync nounwind willreturn
declare void @llvm.lifetime.start.p0i8(i64 immarg, i8* nocapture) #1

; Function Attrs: nofree nounwind
declare noundef i32 @__isoc99_scanf(i8* nocapture noundef readonly, ...) local_unnamed_addr #2

; Function Attrs: nofree nounwind
declare noundef i32 @printf(i8* nocapture noundef readonly, ...) local_unnamed_addr #2

; Function Attrs: argmemonly mustprogress nofree nosync nounwind willreturn
declare void @llvm.lifetime.end.p0i8(i64 immarg, i8* nocapture) #1

; Function Attrs: nofree nosync nounwind readnone willreturn
declare i32 @llvm.vector.reduce.add.v4i32(<4 x i32>) #3


!llvm.module.flags = !{!0, !1, !2, !3}
!llvm.ident = !{!4}

!0 = !{i32 1, !"wchar_size", i32 4}
!1 = !{i32 7, !"PIC Level", i32 2}
!2 = !{i32 7, !"PIE Level", i32 2}
!3 = !{i32 7, !"uwtable", i32 1}
!4 = !{!"clang version 13.0.0"}
!5 = !{!6, !6, i64 0}
!6 = !{!"int", !7, i64 0}
!7 = !{!"omnipotent char", !8, i64 0}
!8 = !{!"Simple C/C++ TBAA"}
!9 = distinct !{!9, !10, !11}
!10 = !{!"llvm.loop.mustprogress"}
!11 = !{!"llvm.loop.isvectorized", i32 1}
!12 = distinct !{!12, !10, !13, !11}
!13 = !{!"llvm.loop.unroll.runtime.disable"}
!14 = distinct !{!14, !10}
